; Function Attrs: mustprogress uwtable
define hidden noalias noundef ptr @_ZN7datalog17lazy_table_plugin24mk_filter_interpreted_fnERKNS_10table_baseEP3app(ptr noundef nonnull readonly align 8 captures(address) dereferenceable(40) %0, ptr noundef nonnull readonly align 8 captures(none) dereferenceable(36) %1, ptr noundef %2) unnamed_addr #3 align 2 personality ptr @__gxx_personality_v0 {
  %4 = alloca %class.obj_ref, align 8
  %5 = getelementptr inbounds nuw i8, ptr %1, i64 8
  %6 = load ptr, ptr %5, align 8, !tbaa !59
  %7 = icmp eq ptr %6, %0
  br i1 %7, label %8, label %30

8:                                                ; preds = %3
  call void @llvm.lifetime.start.p0(i64 16, ptr nonnull %4) #22
  %9 = getelementptr inbounds nuw i8, ptr %0, i64 24
  %10 = load ptr, ptr %9, align 8, !tbaa !65
  %11 = tail call noundef nonnull align 8 dereferenceable(976) ptr @_ZN7datalog32get_ast_manager_from_rel_managerERKNS_16relation_managerE(ptr noundef nonnull align 8 dereferenceable(200) %10)
  store ptr %2, ptr %4, align 8, !tbaa !66
  %12 = getelementptr inbounds nuw i8, ptr %4, i64 8
  store ptr %11, ptr %12, align 8, !tbaa !70
  %.not.i.i = icmp eq ptr %2, null
  br i1 %.not.i.i, label %_ZN7obj_refI3app11ast_managerEC2EPS0_RS1_.exit, label %_ZN11ast_manager7inc_refEP3ast.exit.i.i

_ZN11ast_manager7inc_refEP3ast.exit.i.i:          ; preds = %8
  %13 = getelementptr inbounds nuw i8, ptr %2, i64 8
  %14 = load i32, ptr %13, align 4, !tbaa !71
  %15 = add i32 %14, 1
  store i32 %15, ptr %13, align 4, !tbaa !71
  br label %_ZN7obj_refI3app11ast_managerEC2EPS0_RS1_.exit

_ZN7obj_refI3app11ast_managerEC2EPS0_RS1_.exit:   ; preds = %8, %_ZN11ast_manager7inc_refEP3ast.exit.i.i
  %16 = invoke noalias noundef ptr @_ZN6memory8allocateEm(i64 noundef 24)
          to label %17 unwind label %28

17:                                               ; preds = %_ZN7obj_refI3app11ast_managerEC2EPS0_RS1_.exit
  store ptr getelementptr inbounds nuw inrange(-16, 40) (i8, ptr @_ZTVN7datalog17lazy_table_plugin21filter_interpreted_fnE, i64 16), ptr %16, align 8, !tbaa !27
  %18 = getelementptr inbounds nuw i8, ptr %16, i64 8
  store ptr %2, ptr %18, align 8, !tbaa !66
  %19 = getelementptr inbounds nuw i8, ptr %16, i64 16
  store ptr %11, ptr %19, align 8, !tbaa !70
  br i1 %.not.i.i, label %_ZN7obj_refI3app11ast_managerED2Ev.exit, label %20

20:                                               ; preds = %17
  %21 = getelementptr inbounds nuw i8, ptr %2, i64 8
  %22 = load i32, ptr %21, align 4, !tbaa !71
  %23 = icmp eq i32 %22, 0
  br i1 %23, label %24, label %_ZN7obj_refI3app11ast_managerED2Ev.exit

24:                                               ; preds = %20
  invoke void @_ZN11ast_manager11delete_nodeEP3ast(ptr noundef nonnull align 8 dereferenceable(976) %11, ptr noundef nonnull %2)
          to label %_ZN7obj_refI3app11ast_managerED2Ev.exit unwind label %25

25:                                               ; preds = %24
  %26 = landingpad { ptr, i32 }
          catch ptr null
  %27 = extractvalue { ptr, i32 } %26, 0
  tail call void @__clang_call_terminate(ptr %27) #25
  unreachable

_ZN7obj_refI3app11ast_managerED2Ev.exit:          ; preds = %17, %20, %24
  call void @llvm.lifetime.end.p0(i64 16, ptr nonnull %4) #22
  br label %30

28:                                               ; preds = %_ZN7obj_refI3app11ast_managerEC2EPS0_RS1_.exit
  %29 = landingpad { ptr, i32 }
          cleanup
  call void @_ZN7obj_refI3app11ast_managerED2Ev(ptr noundef nonnull align 8 dereferenceable(16) %4) #22
  call void @llvm.lifetime.end.p0(i64 16, ptr nonnull %4) #22
  resume { ptr, i32 } %29

30:                                               ; preds = %3, %_ZN7obj_refI3app11ast_managerED2Ev.exit
  %.0 = phi ptr [ %16, %_ZN7obj_refI3app11ast_managerED2Ev.exit ], [ null, %3 ]
  ret ptr %.0
}